target datalayout = "e-m:e-p270:32:32-p271:32:32-p272:64:64-i64:64-i128:128-f80:128-n8:16:32:64-S128"
target triple = "x86_64-pc-linux-gnu"

@.str.19 = private unnamed_addr constant [27 x i8] c"../openssl/test/d2i_test.c\00", align 1
@test_file = internal global ptr null, align 8
@item_type = internal global ptr null, align 8
@expected_error = internal global i32 0, align 4
@.str.29 = private unnamed_addr constant [2 x i8] c"r\00", align 1
@.str.30 = private unnamed_addr constant [4 x i8] c"bio\00", align 1
@.str.31 = private unnamed_addr constant [40 x i8] c"ASN1_item_d2i_bio(item_type, bio, NULL)\00", align 1
@.str.32 = private unnamed_addr constant [4 x i8] c"len\00", align 1
@.str.33 = private unnamed_addr constant [2 x i8] c"0\00", align 1
@.str.34 = private unnamed_addr constant [15 x i8] c"expected_error\00", align 1
@.str.35 = private unnamed_addr constant [12 x i8] c"ASN1_DECODE\00", align 1
@.str.36 = private unnamed_addr constant [12 x i8] c"ASN1_ENCODE\00", align 1
@.str.37 = private unnamed_addr constant [13 x i8] c"ASN1_COMPARE\00", align 1
@.str.38 = private unnamed_addr constant [8 x i8] c"ASN1_OK\00", align 1
@.str.39 = private unnamed_addr constant [57 x i8] c"ERR_GET_REASON(ERR_peek_error()) == ERR_R_MALLOC_FAILURE\00", align 1

; Function Attrs: inlinehint nounwind uwtable
define internal i32 @ERR_GET_REASON(i64 noundef %0) #4 {
  %2 = alloca i32, align 4
  %3 = alloca i64, align 8
  store i64 %0, ptr %3, align 8, !tbaa !11
  %4 = load i64, ptr %3, align 8, !tbaa !11
  %5 = and i64 %4, 2147483648
  %6 = icmp ne i64 %5, 0
  br i1 %6, label %7, label %11

7:                                                ; preds = %1
  %8 = load i64, ptr %3, align 8, !tbaa !11
  %9 = and i64 %8, 2147483647
  %10 = trunc i64 %9 to i32
  store i32 %10, ptr %2, align 4
  br label %15

11:                                               ; preds = %1
  %12 = load i64, ptr %3, align 8, !tbaa !11
  %13 = and i64 %12, 8388607
  %14 = trunc i64 %13 to i32
  store i32 %14, ptr %2, align 4
  br label %15

15:                                               ; preds = %11, %7
  %16 = load i32, ptr %2, align 4
  ret i32 %16
}

; Function Attrs: nounwind uwtable
define internal i32 @test_bad_asn1() #0 {
  %1 = alloca i32, align 4
  %2 = alloca ptr, align 8
  %3 = alloca ptr, align 8
  %4 = alloca i32, align 4
  %5 = alloca [2048 x i8], align 16
  %6 = alloca ptr, align 8
  %7 = alloca ptr, align 8
  %8 = alloca i32, align 4
  %9 = alloca i32, align 4
  %10 = alloca i32, align 4
  call void @llvm.lifetime.start.p0(i64 8, ptr %2) #5
  store ptr null, ptr %2, align 8, !tbaa !23
  call void @llvm.lifetime.start.p0(i64 8, ptr %3) #5
  store ptr null, ptr %3, align 8, !tbaa !25
  call void @llvm.lifetime.start.p0(i64 4, ptr %4) #5
  store i32 0, ptr %4, align 4, !tbaa !20
  call void @llvm.lifetime.start.p0(i64 2048, ptr %5) #5
  call void @llvm.lifetime.start.p0(i64 8, ptr %6) #5
  %11 = getelementptr inbounds [2048 x i8], ptr %5, i64 0, i64 0
  store ptr %11, ptr %6, align 8, !tbaa !4
  call void @llvm.lifetime.start.p0(i64 8, ptr %7) #5
  store ptr null, ptr %7, align 8, !tbaa !4
  call void @llvm.lifetime.start.p0(i64 4, ptr %8) #5
  call void @llvm.lifetime.start.p0(i64 4, ptr %9) #5
  %12 = load ptr, ptr @test_file, align 8, !tbaa !4
  %13 = call ptr @BIO_new_file(ptr noundef %12, ptr noundef @.str.29)
  store ptr %13, ptr %2, align 8, !tbaa !23
  %14 = load ptr, ptr %2, align 8, !tbaa !23
  %15 = call i32 @test_ptr(ptr noundef @.str.19, i32 noundef 56, ptr noundef @.str.30, ptr noundef %14)
  %16 = icmp ne i32 %15, 0
  br i1 %16, label %18, label %17

17:                                               ; preds = %0
  store i32 0, ptr %1, align 4
  store i32 1, ptr %10, align 4
  br label %108

18:                                               ; preds = %0
  %19 = load i32, ptr @expected_error, align 4, !tbaa !20
  %20 = icmp eq i32 %19, 2
  br i1 %20, label %21, label %29

21:                                               ; preds = %18
  %22 = load ptr, ptr @item_type, align 8, !tbaa !9
  %23 = load ptr, ptr %2, align 8, !tbaa !23
  %24 = call ptr @ASN1_item_d2i_bio(ptr noundef %22, ptr noundef %23, ptr noundef null)
  %25 = call i32 @test_ptr_null(ptr noundef @.str.19, i32 noundef 60, ptr noundef @.str.31, ptr noundef %24)
  %26 = icmp ne i32 %25, 0
  br i1 %26, label %27, label %28

27:                                               ; preds = %21
  store i32 1, ptr %4, align 4, !tbaa !20
  br label %28

28:                                               ; preds = %27, %21
  br label %88

29:                                               ; preds = %18
  %30 = load ptr, ptr %2, align 8, !tbaa !23
  %31 = getelementptr inbounds [2048 x i8], ptr %5, i64 0, i64 0
  %32 = call i32 @BIO_read(ptr noundef %30, ptr noundef %31, i32 noundef 2048)
  store i32 %32, ptr %9, align 4, !tbaa !20
  %33 = load i32, ptr %9, align 4, !tbaa !20
  %34 = call i32 @test_int_ge(ptr noundef @.str.19, i32 noundef 71, ptr noundef @.str.32, ptr noundef @.str.33, i32 noundef %33, i32 noundef 0)
  %35 = icmp ne i32 %34, 0
  br i1 %35, label %37, label %36

36:                                               ; preds = %29
  br label %88

37:                                               ; preds = %29
  %38 = load i32, ptr %9, align 4, !tbaa !20
  %39 = sext i32 %38 to i64
  %40 = load ptr, ptr @item_type, align 8, !tbaa !9
  %41 = call ptr @ASN1_item_d2i(ptr noundef null, ptr noundef %6, i64 noundef %39, ptr noundef %40)
  store ptr %41, ptr %3, align 8, !tbaa !25
  %42 = load ptr, ptr %3, align 8, !tbaa !25
  %43 = icmp eq ptr %42, null
  br i1 %43, label %44, label %50

44:                                               ; preds = %37
  %45 = load i32, ptr @expected_error, align 4, !tbaa !20
  %46 = call i32 @test_int_eq(ptr noundef @.str.19, i32 noundef 76, ptr noundef @.str.34, ptr noundef @.str.35, i32 noundef %45, i32 noundef 3)
  %47 = icmp ne i32 %46, 0
  br i1 %47, label %48, label %49

48:                                               ; preds = %44
  store i32 1, ptr %4, align 4, !tbaa !20
  br label %49

49:                                               ; preds = %48, %44
  br label %88

50:                                               ; preds = %37
  %51 = load ptr, ptr %3, align 8, !tbaa !25
  %52 = load ptr, ptr @item_type, align 8, !tbaa !9
  %53 = call i32 @ASN1_item_i2d(ptr noundef %51, ptr noundef %7, ptr noundef %52)
  store i32 %53, ptr %8, align 4, !tbaa !20
  %54 = load ptr, ptr %7, align 8, !tbaa !4
  %55 = icmp eq ptr %54, null
  br i1 %55, label %59, label %56

56:                                               ; preds = %50
  %57 = load i32, ptr %8, align 4, !tbaa !20
  %58 = icmp slt i32 %57, 0
  br i1 %58, label %59, label %65

59:                                               ; preds = %56, %50
  %60 = load i32, ptr @expected_error, align 4, !tbaa !20
  %61 = call i32 @test_int_eq(ptr noundef @.str.19, i32 noundef 84, ptr noundef @.str.34, ptr noundef @.str.36, i32 noundef %60, i32 noundef 4)
  %62 = icmp ne i32 %61, 0
  br i1 %62, label %63, label %64

63:                                               ; preds = %59
  store i32 1, ptr %4, align 4, !tbaa !20
  br label %64

64:                                               ; preds = %63, %59
  br label %88

65:                                               ; preds = %56
  %66 = load i32, ptr %8, align 4, !tbaa !20
  %67 = load i32, ptr %9, align 4, !tbaa !20
  %68 = icmp ne i32 %66, %67
  br i1 %68, label %76, label %69

69:                                               ; preds = %65
  %70 = load ptr, ptr %7, align 8, !tbaa !4
  %71 = getelementptr inbounds [2048 x i8], ptr %5, i64 0, i64 0
  %72 = load i32, ptr %8, align 4, !tbaa !20
  %73 = sext i32 %72 to i64
  %74 = call i32 @memcmp(ptr noundef %70, ptr noundef %71, i64 noundef %73) #6
  %75 = icmp ne i32 %74, 0
  br i1 %75, label %76, label %82

76:                                               ; preds = %69, %65
  %77 = load i32, ptr @expected_error, align 4, !tbaa !20
  %78 = call i32 @test_int_eq(ptr noundef @.str.19, i32 noundef 90, ptr noundef @.str.34, ptr noundef @.str.37, i32 noundef %77, i32 noundef 5)
  %79 = icmp ne i32 %78, 0
  br i1 %79, label %80, label %81

80:                                               ; preds = %76
  store i32 1, ptr %4, align 4, !tbaa !20
  br label %81

81:                                               ; preds = %80, %76
  br label %88

82:                                               ; preds = %69
  %83 = load i32, ptr @expected_error, align 4, !tbaa !20
  %84 = call i32 @test_int_eq(ptr noundef @.str.19, i32 noundef 95, ptr noundef @.str.34, ptr noundef @.str.38, i32 noundef %83, i32 noundef 1)
  %85 = icmp ne i32 %84, 0
  br i1 %85, label %86, label %87

86:                                               ; preds = %82
  store i32 1, ptr %4, align 4, !tbaa !20
  br label %87

87:                                               ; preds = %86, %82
  br label %88

88:                                               ; preds = %87, %81, %64, %49, %36, %28
  %89 = load i32, ptr %4, align 4, !tbaa !20
  %90 = icmp eq i32 %89, 1
  br i1 %90, label %91, label %101

91:                                               ; preds = %88
  %92 = call i64 @ERR_peek_error()
  %93 = call i32 @ERR_GET_REASON(i64 noundef %92)
  %94 = icmp eq i32 %93, 786688
  %95 = zext i1 %94 to i32
  %96 = icmp ne i32 %95, 0
  %97 = zext i1 %96 to i32
  %98 = call i32 @test_false(ptr noundef @.str.19, i32 noundef 101, ptr noundef @.str.39, i32 noundef %97)
  %99 = icmp ne i32 %98, 0
  br i1 %99, label %101, label %100

100:                                              ; preds = %91
  store i32 0, ptr %4, align 4, !tbaa !20
  br label %101

101:                                              ; preds = %100, %91, %88
  %102 = load ptr, ptr %2, align 8, !tbaa !23
  %103 = call i32 @BIO_free(ptr noundef %102)
  %104 = load ptr, ptr %7, align 8, !tbaa !4
  call void @CRYPTO_free(ptr noundef %104, ptr noundef @.str.19, i32 noundef 104)
  %105 = load ptr, ptr %3, align 8, !tbaa !25
  %106 = load ptr, ptr @item_type, align 8, !tbaa !9
  call void @ASN1_item_free(ptr noundef %105, ptr noundef %106)
  %107 = load i32, ptr %4, align 4, !tbaa !20
  store i32 %107, ptr %1, align 4
  store i32 1, ptr %10, align 4
  br label %108

108:                                              ; preds = %101, %17
  call void @llvm.lifetime.end.p0(i64 4, ptr %9) #5
  call void @llvm.lifetime.end.p0(i64 4, ptr %8) #5
  call void @llvm.lifetime.end.p0(i64 8, ptr %7) #5
  call void @llvm.lifetime.end.p0(i64 8, ptr %6) #5
  call void @llvm.lifetime.end.p0(i64 2048, ptr %5) #5
  call void @llvm.lifetime.end.p0(i64 4, ptr %4) #5
  call void @llvm.lifetime.end.p0(i64 8, ptr %3) #5
  call void @llvm.lifetime.end.p0(i64 8, ptr %2) #5
  %109 = load i32, ptr %1, align 4
  ret i32 %109
}