; Function Attrs: nounwind uwtable
define internal range(i32 0, 2) i32 @test_bad_asn1() #1 {
  %1 = alloca [2048 x i8], align 16
  %2 = alloca ptr, align 8
  %3 = alloca ptr, align 8
  call void @llvm.lifetime.start.p0(i64 2048, ptr nonnull %1) #6
  call void @llvm.lifetime.start.p0(i64 8, ptr nonnull %2) #6
  store ptr %1, ptr %2, align 8, !tbaa !4
  call void @llvm.lifetime.start.p0(i64 8, ptr nonnull %3) #6
  store ptr null, ptr %3, align 8, !tbaa !4
  %4 = load ptr, ptr @test_file, align 8, !tbaa !4
  %5 = call ptr @BIO_new_file(ptr noundef %4, ptr noundef nonnull @.str.29) #6
  %6 = call i32 @test_ptr(ptr noundef nonnull @.str.19, i32 noundef 56, ptr noundef nonnull @.str.30, ptr noundef %5) #6
  %.not = icmp eq i32 %6, 0
  br i1 %.not, label %53, label %7

7:                                                ; preds = %0
  %8 = load i32, ptr @expected_error, align 4, !tbaa !21
  %9 = icmp eq i32 %8, 2
  br i1 %9, label %10, label %14

10:                                               ; preds = %7
  %11 = load ptr, ptr @item_type, align 8, !tbaa !9
  %12 = call ptr @ASN1_item_d2i_bio(ptr noundef %11, ptr noundef %5, ptr noundef null) #6
  %13 = call i32 @test_ptr_null(ptr noundef nonnull @.str.19, i32 noundef 60, ptr noundef nonnull @.str.31, ptr noundef %12) #6
  %.not29.not = icmp eq i32 %13, 0
  br i1 %.not29.not, label %.thread, label %43

14:                                               ; preds = %7
  %15 = call i32 @BIO_read(ptr noundef %5, ptr noundef nonnull %1, i32 noundef 2048) #6
  %16 = call i32 @test_int_ge(ptr noundef nonnull @.str.19, i32 noundef 71, ptr noundef nonnull @.str.32, ptr noundef nonnull @.str.33, i32 noundef %15, i32 noundef 0) #6
  %.not22 = icmp eq i32 %16, 0
  br i1 %.not22, label %.thread, label %17

17:                                               ; preds = %14
  %18 = sext i32 %15 to i64
  %19 = load ptr, ptr @item_type, align 8, !tbaa !9
  %20 = call ptr @ASN1_item_d2i(ptr noundef null, ptr noundef nonnull %2, i64 noundef %18, ptr noundef %19) #6
  %21 = icmp eq ptr %20, null
  br i1 %21, label %22, label %25

22:                                               ; preds = %17
  %23 = load i32, ptr @expected_error, align 4, !tbaa !21
  %24 = call i32 @test_int_eq(ptr noundef nonnull @.str.19, i32 noundef 76, ptr noundef nonnull @.str.34, ptr noundef nonnull @.str.35, i32 noundef %23, i32 noundef 3) #6
  %.not28.not = icmp eq i32 %24, 0
  br i1 %.not28.not, label %.thread, label %43

25:                                               ; preds = %17
  %26 = load ptr, ptr @item_type, align 8, !tbaa !9
  %27 = call i32 @ASN1_item_i2d(ptr noundef nonnull %20, ptr noundef nonnull %3, ptr noundef %26) #6
  %28 = load ptr, ptr %3, align 8, !tbaa !4
  %29 = icmp eq ptr %28, null
  %30 = icmp slt i32 %27, 0
  %or.cond = select i1 %29, i1 true, i1 %30
  br i1 %or.cond, label %31, label %34

31:                                               ; preds = %25
  %32 = load i32, ptr @expected_error, align 4, !tbaa !21
  %33 = call i32 @test_int_eq(ptr noundef nonnull @.str.19, i32 noundef 84, ptr noundef nonnull @.str.34, ptr noundef nonnull @.str.36, i32 noundef %32, i32 noundef 4) #6
  %.not27.not = icmp eq i32 %33, 0
  br i1 %.not27.not, label %.thread, label %43

34:                                               ; preds = %25
  %.not23 = icmp eq i32 %27, %15
  br i1 %.not23, label %35, label %37

35:                                               ; preds = %34
  %36 = zext nneg i32 %15 to i64
  %bcmp = call i32 @bcmp(ptr nonnull %28, ptr nonnull %1, i64 %36)
  %.not24 = icmp eq i32 %bcmp, 0
  br i1 %.not24, label %40, label %37

37:                                               ; preds = %35, %34
  %38 = load i32, ptr @expected_error, align 4, !tbaa !21
  %39 = call i32 @test_int_eq(ptr noundef nonnull @.str.19, i32 noundef 90, ptr noundef nonnull @.str.34, ptr noundef nonnull @.str.37, i32 noundef %38, i32 noundef 5) #6
  %.not26.not = icmp eq i32 %39, 0
  br i1 %.not26.not, label %.thread, label %43

40:                                               ; preds = %35
  %41 = load i32, ptr @expected_error, align 4, !tbaa !21
  %42 = call i32 @test_int_eq(ptr noundef nonnull @.str.19, i32 noundef 95, ptr noundef nonnull @.str.34, ptr noundef nonnull @.str.38, i32 noundef %41, i32 noundef 1) #6
  %.not25.not = icmp eq i32 %42, 0
  br i1 %.not25.not, label %.thread, label %43

43:                                               ; preds = %37, %31, %22, %10, %40
  %.01738 = phi ptr [ null, %10 ], [ %20, %40 ], [ null, %22 ], [ %20, %31 ], [ %20, %37 ]
  %44 = call i64 @ERR_peek_error() #6
  %45 = and i64 %44, 2147483648
  %.not.i = icmp eq i64 %45, 0
  %46 = trunc i64 %44 to i32
  %.0.v.i = select i1 %.not.i, i32 8388607, i32 2147483647
  %.0.i = and i32 %.0.v.i, %46
  %47 = icmp eq i32 %.0.i, 786688
  %48 = zext i1 %47 to i32
  %49 = call i32 @test_false(ptr noundef nonnull @.str.19, i32 noundef 101, ptr noundef nonnull @.str.39, i32 noundef %48) #6
  %.not30 = icmp ne i32 %49, 0
  %spec.select35 = zext i1 %.not30 to i32
  br label %.thread

.thread:                                          ; preds = %14, %37, %31, %22, %10, %43, %40
  %.01737 = phi ptr [ %20, %40 ], [ %.01738, %43 ], [ null, %10 ], [ null, %22 ], [ %20, %31 ], [ %20, %37 ], [ null, %14 ]
  %.1 = phi i32 [ 0, %40 ], [ %spec.select35, %43 ], [ 0, %10 ], [ 0, %22 ], [ 0, %31 ], [ 0, %37 ], [ 0, %14 ]
  %50 = call i32 @BIO_free(ptr noundef %5) #6
  %51 = load ptr, ptr %3, align 8, !tbaa !4
  call void @CRYPTO_free(ptr noundef %51, ptr noundef nonnull @.str.19, i32 noundef 104) #6
  %52 = load ptr, ptr @item_type, align 8, !tbaa !9
  call void @ASN1_item_free(ptr noundef %.01737, ptr noundef %52) #6
  br label %53

53:                                               ; preds = %0, %.thread
  %.0 = phi i32 [ %.1, %.thread ], [ 0, %0 ]
  call void @llvm.lifetime.end.p0(i64 8, ptr nonnull %3) #6
  call void @llvm.lifetime.end.p0(i64 8, ptr nonnull %2) #6
  call void @llvm.lifetime.end.p0(i64 2048, ptr nonnull %1) #6
  ret i32 %.0
}